target datalayout = "e-m:e-p270:32:32-p271:32:32-p272:64:64-i64:64-i128:128-f80:128-n8:16:32:64-S128"
target triple = "x86_64-pc-linux-gnu"

%struct.dt_imageio_xcf_t = type { %struct.dt_imageio_module_data_t, i32 }
%struct.dt_imageio_module_data_t = type { i32, i32, i32, i32, [128 x i8], i32 }
%struct.dt_imageio_module_format_t = type { %struct.dt_action_t, ptr, ptr, ptr, ptr, ptr, ptr, ptr, ptr, ptr, ptr, ptr, ptr, ptr, ptr, ptr, ptr, ptr, ptr, ptr, ptr, [128 x i8], ptr, ptr, ptr, i32, i32 }
%struct.dt_action_t = type { i32, ptr, ptr, ptr, ptr, ptr }
%struct.dt_imageio_xcf_gui_t = type { ptr }

; Function Attrs: nounwind uwtable
define i64 @params_size(ptr noundef %0) #0 {
  %2 = alloca ptr, align 8
  store ptr %0, ptr %2, align 8, !tbaa !119
  ret i64 152
}

; Function Attrs: nounwind uwtable
define i32 @set_params(ptr noundef %0, ptr noundef %1, i32 noundef %2) #0 {
  %4 = alloca i32, align 4
  %5 = alloca ptr, align 8
  %6 = alloca ptr, align 8
  %7 = alloca i32, align 4
  %8 = alloca ptr, align 8
  %9 = alloca ptr, align 8
  store ptr %0, ptr %5, align 8, !tbaa !119
  store ptr %1, ptr %6, align 8, !tbaa !13
  store i32 %2, ptr %7, align 4, !tbaa !14
  %10 = load i32, ptr %7, align 4, !tbaa !14
  %11 = sext i32 %10 to i64
  %12 = load ptr, ptr %5, align 8, !tbaa !119
  %13 = call i64 @params_size(ptr noundef %12)
  %14 = icmp ne i64 %11, %13
  br i1 %14, label %15, label %16

15:                                               ; preds = %3
  store i32 1, ptr %4, align 4
  br label %44

16:                                               ; preds = %3
  call void @llvm.lifetime.start.p0(i64 8, ptr %8) #12
  %17 = load ptr, ptr %6, align 8, !tbaa !13
  store ptr %17, ptr %8, align 8, !tbaa !18
  call void @llvm.lifetime.start.p0(i64 8, ptr %9) #12
  %18 = load ptr, ptr %5, align 8, !tbaa !119
  %19 = getelementptr inbounds nuw %struct.dt_imageio_module_format_t, ptr %18, i32 0, i32 24
  %20 = load ptr, ptr %19, align 8, !tbaa !121
  store ptr %20, ptr %9, align 8, !tbaa !125
  %21 = load ptr, ptr %8, align 8, !tbaa !18
  %22 = getelementptr inbounds nuw %struct.dt_imageio_xcf_t, ptr %21, i32 0, i32 1
  %23 = load i32, ptr %22, align 4, !tbaa !67
  %24 = icmp eq i32 %23, 16
  br i1 %24, label %25, label %29

25:                                               ; preds = %16
  %26 = load ptr, ptr %9, align 8, !tbaa !125
  %27 = getelementptr inbounds nuw %struct.dt_imageio_xcf_gui_t, ptr %26, i32 0, i32 0
  %28 = load ptr, ptr %27, align 8, !tbaa !127
  call void @dt_bauhaus_combobox_set(ptr noundef %28, i32 noundef 1)
  br label %43

29:                                               ; preds = %16
  %30 = load ptr, ptr %8, align 8, !tbaa !18
  %31 = getelementptr inbounds nuw %struct.dt_imageio_xcf_t, ptr %30, i32 0, i32 1
  %32 = load i32, ptr %31, align 4, !tbaa !67
  %33 = icmp eq i32 %32, 32
  br i1 %33, label %34, label %38

34:                                               ; preds = %29
  %35 = load ptr, ptr %9, align 8, !tbaa !125
  %36 = getelementptr inbounds nuw %struct.dt_imageio_xcf_gui_t, ptr %35, i32 0, i32 0
  %37 = load ptr, ptr %36, align 8, !tbaa !127
  call void @dt_bauhaus_combobox_set(ptr noundef %37, i32 noundef 2)
  br label %42

38:                                               ; preds = %29
  %39 = load ptr, ptr %9, align 8, !tbaa !125
  %40 = getelementptr inbounds nuw %struct.dt_imageio_xcf_gui_t, ptr %39, i32 0, i32 0
  %41 = load ptr, ptr %40, align 8, !tbaa !127
  call void @dt_bauhaus_combobox_set(ptr noundef %41, i32 noundef 0)
  br label %42

42:                                               ; preds = %38, %34
  br label %43

43:                                               ; preds = %42, %25
  store i32 0, ptr %4, align 4
  call void @llvm.lifetime.end.p0(i64 8, ptr %9) #12
  call void @llvm.lifetime.end.p0(i64 8, ptr %8) #12
  br label %44

44:                                               ; preds = %43, %15
  %45 = load i32, ptr %4, align 4
  ret i32 %45
}