; Function Attrs: nounwind uwtable
define range(i32 0, 2) i32 @set_params(ptr noundef readonly captures(none) %0, ptr noundef readonly captures(none) %1, i32 noundef %2) local_unnamed_addr #1 {
  %.not = icmp eq i32 %2, 152
  br i1 %.not, label %.sink.split, label %9

.sink.split:                                      ; preds = %3
  %4 = getelementptr inbounds nuw i8, ptr %0, i64 352
  %5 = load ptr, ptr %4, align 8, !tbaa !56
  %6 = getelementptr inbounds nuw i8, ptr %1, i64 148
  %7 = load i32, ptr %6, align 4, !tbaa !17
  %8 = load ptr, ptr %5, align 8, !tbaa !61
  %switch.selectcmp = icmp eq i32 %7, 32
  %switch.select = select i1 %switch.selectcmp, i32 2, i32 0
  %switch.selectcmp10 = icmp eq i32 %7, 16
  %switch.select11 = select i1 %switch.selectcmp10, i32 1, i32 %switch.select
  tail call void @dt_bauhaus_combobox_set(ptr noundef %8, i32 noundef %switch.select11) #17
  br label %9

9:                                                ; preds = %.sink.split, %3
  %.0 = phi i32 [ 1, %3 ], [ 0, %.sink.split ]
  ret i32 %.0
}